; Function Attrs: mustprogress nounwind uwtable
define dso_local noundef zeroext i1 @_ZN4llvm10MCStreamer10popSectionEv(ptr noundef nonnull align 8 dereferenceable(288) %0) local_unnamed_addr #0 align 2 {
  %2 = getelementptr inbounds nuw i8, ptr %0, i64 120
  %3 = tail call noundef i64 @_ZNK4llvm15SmallVectorBaseIjE4sizeEv(ptr noundef nonnull align 8 dereferenceable(16) %2) #23
  %4 = icmp ugt i64 %3, 1
  br i1 %4, label %5, label %20

5:                                                ; preds = %1
  %6 = load ptr, ptr %2, align 8
  %7 = tail call noundef i64 @_ZNK4llvm15SmallVectorBaseIjE4sizeEv(ptr noundef nonnull align 8 dereferenceable(16) %2) #23
  %8 = getelementptr inbounds %"struct.std::pair.149", ptr %6, i64 %7
  %9 = getelementptr inbounds i8, ptr %8, i64 -64
  %.sroa.0.0.copyload = load ptr, ptr %9, align 8
  %.sroa.4.0..sroa_idx = getelementptr inbounds i8, ptr %8, i64 -56
  %.sroa.4.0.copyload = load i32, ptr %.sroa.4.0..sroa_idx, align 8
  %.not = icmp eq ptr %.sroa.0.0.copyload, null
  br i1 %.not, label %17, label %10

10:                                               ; preds = %5
  %.sroa.2.0..sroa_idx = getelementptr inbounds i8, ptr %8, i64 -24
  %.sroa.2.0.copyload = load i32, ptr %.sroa.2.0..sroa_idx, align 8
  %11 = getelementptr inbounds i8, ptr %8, i64 -32
  %.sroa.09.0.copyload = load ptr, ptr %11, align 8
  %12 = icmp ne ptr %.sroa.09.0.copyload, %.sroa.0.0.copyload
  %13 = icmp ne i32 %.sroa.2.0.copyload, %.sroa.4.0.copyload
  %.not3.i = select i1 %12, i1 true, i1 %13
  br i1 %.not3.i, label %14, label %17

14:                                               ; preds = %10
  %15 = load ptr, ptr %0, align 8
  %16 = load ptr, ptr %15, align 8
  tail call void %16(ptr noundef nonnull align 8 dereferenceable(288) %0, ptr noundef nonnull %.sroa.0.0.copyload, i32 noundef %.sroa.4.0.copyload) #23
  br label %17

17:                                               ; preds = %14, %10, %5
  %18 = tail call noundef i64 @_ZNK4llvm15SmallVectorBaseIjE4sizeEv(ptr noundef nonnull align 8 dereferenceable(16) %2) #23
  %19 = add i64 %18, -1
  tail call void @_ZN4llvm15SmallVectorBaseIjE8set_sizeEm(ptr noundef nonnull align 8 dereferenceable(16) %2, i64 noundef %19) #23
  br label %20

20:                                               ; preds = %1, %17
  ret i1 %4
}